target datalayout = "e-m:e-p270:32:32-p271:32:32-p272:64:64-i64:64-i128:128-f80:128-n8:16:32:64-S128"
target triple = "x86_64-pc-linux-gnu"

%"class.VrmlTranslator::Parser" = type { i32, ptr, i32, i32, ptr, ptr, ptr, ptr, ptr, %"class.std::map", %"class.std::set", %"class.std::set" }
%"class.std::map" = type { %"class.std::_Rb_tree" }
%"class.std::_Rb_tree" = type { %"struct.std::_Rb_tree<QString, std::pair<const QString, QString>, std::_Select1st<std::pair<const QString, QString>>, std::less<QString>>::_Rb_tree_impl" }
%"struct.std::_Rb_tree<QString, std::pair<const QString, QString>, std::_Select1st<std::pair<const QString, QString>>, std::less<QString>>::_Rb_tree_impl" = type { %"struct.std::_Rb_tree_key_compare", %"struct.std::_Rb_tree_header" }
%"struct.std::_Rb_tree_key_compare" = type { %"struct.std::less" }
%"struct.std::less" = type { i8 }
%"struct.std::_Rb_tree_header" = type { %"struct.std::_Rb_tree_node_base", i64 }
%"struct.std::_Rb_tree_node_base" = type { i32, ptr, ptr, ptr }
%"class.std::set" = type { %"class.std::_Rb_tree.0" }
%"class.std::_Rb_tree.0" = type { %"struct.std::_Rb_tree<QString, QString, std::_Identity<QString>, std::less<QString>>::_Rb_tree_impl" }
%"struct.std::_Rb_tree<QString, QString, std::_Identity<QString>, std::less<QString>>::_Rb_tree_impl" = type { %"struct.std::_Rb_tree_key_compare", %"struct.std::_Rb_tree_header" }
%"class.VrmlTranslator::Token" = type { i32, i32, i32, i32, ptr, ptr }
%class.QDomElement = type { %class.QDomNode }
%class.QDomNode = type { ptr }
%class.QString = type { ptr }

@.str = private unnamed_addr constant [4 x i8] c"X3D\00", align 1
@.str.1 = private unnamed_addr constant [6 x i8] c"Scene\00", align 1

; Function Attrs: mustprogress nounwind uwtable
define noundef zeroext i1 @_ZN14VrmlTranslator6Parser7StartOfEi(ptr noundef nonnull align 8 dereferenceable(208) %0, i32 noundef %1) #2 align 2 {
  %3 = alloca ptr, align 8
  %4 = alloca i32, align 4
  %5 = alloca i8, align 1
  %6 = alloca i8, align 1
  store ptr %0, ptr %3, align 8
  store i32 %1, ptr %4, align 4
  %7 = load ptr, ptr %3, align 8
  store i8 1, ptr %5, align 1
  store i8 0, ptr %6, align 1
  %8 = load i32, ptr %4, align 4
  %9 = sext i32 %8 to i64
  %10 = getelementptr inbounds [12 x [87 x i8]], ptr @_ZZN14VrmlTranslator6Parser7StartOfEiE3set, i64 0, i64 %9
  %11 = getelementptr inbounds %"class.VrmlTranslator::Parser", ptr %7, i32 0, i32 7
  %12 = load ptr, ptr %11, align 8
  %13 = getelementptr inbounds %"class.VrmlTranslator::Token", ptr %12, i32 0, i32 0
  %14 = load i32, ptr %13, align 8
  %15 = sext i32 %14 to i64
  %16 = getelementptr inbounds [87 x i8], ptr %10, i64 0, i64 %15
  %17 = load i8, ptr %16, align 1
  %18 = trunc i8 %17 to i1
  ret i1 %18
}

; Function Attrs: mustprogress uwtable
define void @_ZN14VrmlTranslator6Parser10StatementsER11QDomElement(ptr noundef nonnull align 8 dereferenceable(208) %0, ptr noundef nonnull align 8 dereferenceable(8) %1) #0 align 2 {
  %3 = alloca ptr, align 8
  %4 = alloca ptr, align 8
  store ptr %0, ptr %3, align 8
  store ptr %1, ptr %4, align 8
  %5 = load ptr, ptr %3, align 8
  br label %6

6:                                                ; preds = %8, %2
  %7 = call noundef zeroext i1 @_ZN14VrmlTranslator6Parser7StartOfEi(ptr noundef nonnull align 8 dereferenceable(208) %5, i32 noundef 1)
  br i1 %7, label %8, label %10

8:                                                ; preds = %6
  %9 = load ptr, ptr %4, align 8
  call void @_ZN14VrmlTranslator6Parser9StatementER11QDomElement(ptr noundef nonnull align 8 dereferenceable(208) %5, ptr noundef nonnull align 8 dereferenceable(8) %9)
  br label %6, !llvm.loop !11

10:                                               ; preds = %6
  ret void
}

; Function Attrs: mustprogress uwtable
define void @_ZN14VrmlTranslator6Parser14MetaStatementsEv(ptr noundef nonnull align 8 dereferenceable(208) %0) #0 align 2 {
  %2 = alloca ptr, align 8
  store ptr %0, ptr %2, align 8
  %3 = load ptr, ptr %2, align 8
  br label %4

4:                                                ; preds = %10, %1
  %5 = getelementptr inbounds %"class.VrmlTranslator::Parser", ptr %3, i32 0, i32 7
  %6 = load ptr, ptr %5, align 8
  %7 = getelementptr inbounds %"class.VrmlTranslator::Token", ptr %6, i32 0, i32 0
  %8 = load i32, ptr %7, align 8
  %9 = icmp eq i32 %8, 18
  br i1 %9, label %10, label %11

10:                                               ; preds = %4
  call void @_ZN14VrmlTranslator6Parser13MetaStatementEv(ptr noundef nonnull align 8 dereferenceable(208) %3)
  br label %4, !llvm.loop !10

11:                                               ; preds = %4
  ret void
}

; Function Attrs: mustprogress uwtable
define void @_ZN14VrmlTranslator6Parser19ComponentStatementsEv(ptr noundef nonnull align 8 dereferenceable(208) %0) #0 align 2 {
  %2 = alloca ptr, align 8
  store ptr %0, ptr %2, align 8
  %3 = load ptr, ptr %2, align 8
  br label %4

4:                                                ; preds = %10, %1
  %5 = getelementptr inbounds %"class.VrmlTranslator::Parser", ptr %3, i32 0, i32 7
  %6 = load ptr, ptr %5, align 8
  %7 = getelementptr inbounds %"class.VrmlTranslator::Token", ptr %6, i32 0, i32 0
  %8 = load i32, ptr %7, align 8
  %9 = icmp eq i32 %8, 12
  br i1 %9, label %10, label %11

10:                                               ; preds = %4
  call void @_ZN14VrmlTranslator6Parser18ComponentStatementEv(ptr noundef nonnull align 8 dereferenceable(208) %3)
  br label %4, !llvm.loop !9

11:                                               ; preds = %4
  ret void
}

; Function Attrs: mustprogress nounwind uwtable
define linkonce_odr void @_ZN11QDomElementD2Ev(ptr noundef nonnull align 8 dereferenceable(8) %0) unnamed_addr #2 comdat align 2 {
  %2 = alloca ptr, align 8
  store ptr %0, ptr %2, align 8
  %3 = load ptr, ptr %2, align 8
  call void @_ZN8QDomNodeD2Ev(ptr noundef nonnull align 8 dereferenceable(8) %3) #10
  ret void
}

; Function Attrs: mustprogress uwtable
define linkonce_odr void @_ZN7QStringC2EPKc(ptr noundef nonnull align 8 dereferenceable(8) %0, ptr noundef %1) unnamed_addr #0 comdat align 2 {
  %3 = alloca ptr, align 8
  %4 = alloca ptr, align 8
  store ptr %0, ptr %3, align 8
  store ptr %1, ptr %4, align 8
  %5 = load ptr, ptr %3, align 8
  %6 = getelementptr inbounds %class.QString, ptr %5, i32 0, i32 0
  %7 = load ptr, ptr %4, align 8
  %8 = load ptr, ptr %4, align 8
  %9 = icmp ne ptr %8, null
  br i1 %9, label %10, label %14

10:                                               ; preds = %2
  %11 = load ptr, ptr %4, align 8
  %12 = call i64 @strlen(ptr noundef %11) #11
  %13 = trunc i64 %12 to i32
  br label %15

14:                                               ; preds = %2
  br label %15

15:                                               ; preds = %14, %10
  %16 = phi i32 [ %13, %10 ], [ -1, %14 ]
  %17 = call noundef ptr @_ZN7QString16fromAscii_helperEPKci(ptr noundef %7, i32 noundef %16)
  store ptr %17, ptr %6, align 8
  ret void
}

; Function Attrs: mustprogress uwtable
define void @_ZN14VrmlTranslator6Parser14VrmlTranslatorEv(ptr noundef nonnull align 8 dereferenceable(208) %0) #0 align 2 personality ptr @__gxx_personality_v0 {
  %2 = alloca ptr, align 8
  %3 = alloca %class.QDomElement, align 8
  %4 = alloca %class.QString, align 8
  %5 = alloca ptr, align 8
  %6 = alloca i32, align 4
  %7 = alloca %class.QDomElement, align 8
  %8 = alloca %class.QString, align 8
  %9 = alloca %class.QDomNode, align 8
  %10 = alloca %class.QDomNode, align 8
  store ptr %0, ptr %2, align 8
  %11 = load ptr, ptr %2, align 8
  %12 = getelementptr inbounds %"class.VrmlTranslator::Parser", ptr %11, i32 0, i32 8
  %13 = load ptr, ptr %12, align 8
  call void @_ZN7QStringC2EPKc(ptr noundef nonnull align 8 dereferenceable(8) %4, ptr noundef @.str)
  invoke void @_ZN12QDomDocument13createElementERK7QString(ptr dead_on_unwind writable sret(%class.QDomElement) align 8 %3, ptr noundef nonnull align 8 dereferenceable(8) %13, ptr noundef nonnull align 8 dereferenceable(8) %4)
          to label %14 unwind label %28

14:                                               ; preds = %1
  call void @_ZN7QStringD2Ev(ptr noundef nonnull align 8 dereferenceable(8) %4) #10
  %15 = getelementptr inbounds %"class.VrmlTranslator::Parser", ptr %11, i32 0, i32 8
  %16 = load ptr, ptr %15, align 8
  invoke void @_ZN7QStringC2EPKc(ptr noundef nonnull align 8 dereferenceable(8) %8, ptr noundef @.str.1)
          to label %17 unwind label %32

17:                                               ; preds = %14
  invoke void @_ZN12QDomDocument13createElementERK7QString(ptr dead_on_unwind writable sret(%class.QDomElement) align 8 %7, ptr noundef nonnull align 8 dereferenceable(8) %16, ptr noundef nonnull align 8 dereferenceable(8) %8)
          to label %18 unwind label %36

18:                                               ; preds = %17
  call void @_ZN7QStringD2Ev(ptr noundef nonnull align 8 dereferenceable(8) %8) #10
  invoke void @_ZN8QDomNode11appendChildERKS_(ptr dead_on_unwind writable sret(%class.QDomNode) align 8 %9, ptr noundef nonnull align 8 dereferenceable(8) %3, ptr noundef nonnull align 8 dereferenceable(8) %7)
          to label %19 unwind label %40

19:                                               ; preds = %18
  call void @_ZN8QDomNodeD1Ev(ptr noundef nonnull align 8 dereferenceable(8) %9) #10
  invoke void @_ZN14VrmlTranslator6Parser11InitX3dNodeEv(ptr noundef nonnull align 8 dereferenceable(208) %11)
          to label %20 unwind label %40

20:                                               ; preds = %19
  %21 = getelementptr inbounds %"class.VrmlTranslator::Parser", ptr %11, i32 0, i32 7
  %22 = load ptr, ptr %21, align 8
  %23 = getelementptr inbounds %"class.VrmlTranslator::Token", ptr %22, i32 0, i32 0
  %24 = load i32, ptr %23, align 8
  %25 = icmp eq i32 %24, 7
  br i1 %25, label %26, label %44

26:                                               ; preds = %20
  invoke void @_ZN14VrmlTranslator6Parser15HeaderStatementEv(ptr noundef nonnull align 8 dereferenceable(208) %11)
          to label %27 unwind label %40

27:                                               ; preds = %26
  br label %44

28:                                               ; preds = %1
  %29 = landingpad { ptr, i32 }
          cleanup
  %30 = extractvalue { ptr, i32 } %29, 0
  store ptr %30, ptr %5, align 8
  %31 = extractvalue { ptr, i32 } %29, 1
  store i32 %31, ptr %6, align 4
  call void @_ZN7QStringD2Ev(ptr noundef nonnull align 8 dereferenceable(8) %4) #10
  br label %60

32:                                               ; preds = %14
  %33 = landingpad { ptr, i32 }
          cleanup
  %34 = extractvalue { ptr, i32 } %33, 0
  store ptr %34, ptr %5, align 8
  %35 = extractvalue { ptr, i32 } %33, 1
  store i32 %35, ptr %6, align 4
  br label %59

36:                                               ; preds = %17
  %37 = landingpad { ptr, i32 }
          cleanup
  %38 = extractvalue { ptr, i32 } %37, 0
  store ptr %38, ptr %5, align 8
  %39 = extractvalue { ptr, i32 } %37, 1
  store i32 %39, ptr %6, align 4
  call void @_ZN7QStringD2Ev(ptr noundef nonnull align 8 dereferenceable(8) %8) #10
  br label %59

40:                                               ; preds = %55, %54, %53, %52, %50, %26, %19, %18
  %41 = landingpad { ptr, i32 }
          cleanup
  %42 = extractvalue { ptr, i32 } %41, 0
  store ptr %42, ptr %5, align 8
  %43 = extractvalue { ptr, i32 } %41, 1
  store i32 %43, ptr %6, align 4
  call void @_ZN11QDomElementD2Ev(ptr noundef nonnull align 8 dereferenceable(8) %7) #10
  br label %59

44:                                               ; preds = %27, %20
  %45 = getelementptr inbounds %"class.VrmlTranslator::Parser", ptr %11, i32 0, i32 7
  %46 = load ptr, ptr %45, align 8
  %47 = getelementptr inbounds %"class.VrmlTranslator::Token", ptr %46, i32 0, i32 0
  %48 = load i32, ptr %47, align 8
  %49 = icmp eq i32 %48, 11
  br i1 %49, label %50, label %52

50:                                               ; preds = %44
  invoke void @_ZN14VrmlTranslator6Parser16ProfileStatementEv(ptr noundef nonnull align 8 dereferenceable(208) %11)
          to label %51 unwind label %40

51:                                               ; preds = %50
  br label %52

52:                                               ; preds = %51, %44
  invoke void @_ZN14VrmlTranslator6Parser19ComponentStatementsEv(ptr noundef nonnull align 8 dereferenceable(208) %11)
          to label %53 unwind label %40

53:                                               ; preds = %52
  invoke void @_ZN14VrmlTranslator6Parser14MetaStatementsEv(ptr noundef nonnull align 8 dereferenceable(208) %11)
          to label %54 unwind label %40

54:                                               ; preds = %53
  invoke void @_ZN14VrmlTranslator6Parser10StatementsER11QDomElement(ptr noundef nonnull align 8 dereferenceable(208) %11, ptr noundef nonnull align 8 dereferenceable(8) %7)
          to label %55 unwind label %40

55:                                               ; preds = %54
  %56 = getelementptr inbounds %"class.VrmlTranslator::Parser", ptr %11, i32 0, i32 8
  %57 = load ptr, ptr %56, align 8
  invoke void @_ZN8QDomNode11appendChildERKS_(ptr dead_on_unwind writable sret(%class.QDomNode) align 8 %10, ptr noundef nonnull align 8 dereferenceable(8) %57, ptr noundef nonnull align 8 dereferenceable(8) %3)
          to label %58 unwind label %40

58:                                               ; preds = %55
  call void @_ZN8QDomNodeD1Ev(ptr noundef nonnull align 8 dereferenceable(8) %10) #10
  call void @_ZN11QDomElementD2Ev(ptr noundef nonnull align 8 dereferenceable(8) %7) #10
  call void @_ZN11QDomElementD2Ev(ptr noundef nonnull align 8 dereferenceable(8) %3) #10
  ret void

59:                                               ; preds = %40, %36, %32
  call void @_ZN11QDomElementD2Ev(ptr noundef nonnull align 8 dereferenceable(8) %3) #10
  br label %60

60:                                               ; preds = %59, %28
  %61 = load ptr, ptr %5, align 8
  %62 = load i32, ptr %6, align 4
  %63 = insertvalue { ptr, i32 } poison, ptr %61, 0
  %64 = insertvalue { ptr, i32 } %63, i32 %62, 1
  resume { ptr, i32 } %64
}