; Function Attrs: mustprogress uwtable
define void @_ZN14VrmlTranslator6Parser14VrmlTranslatorEv(ptr noundef nonnull align 8 dereferenceable(208) %0) local_unnamed_addr #0 align 2 personality ptr @__gxx_personality_v0 {
  %2 = alloca %class.QDomElement, align 8
  %3 = alloca %class.QString, align 8
  %4 = alloca %class.QDomElement, align 8
  %5 = alloca %class.QString, align 8
  %6 = alloca %class.QDomNode, align 8
  %7 = alloca %class.QDomNode, align 8
  %8 = getelementptr inbounds nuw i8, ptr %0, i64 56
  %9 = load ptr, ptr %8, align 8
  %10 = tail call noundef ptr @_ZN7QString16fromAscii_helperEPKci(ptr noundef nonnull @.str, i32 noundef 3)
  store ptr %10, ptr %3, align 8
  invoke void @_ZN12QDomDocument13createElementERK7QString(ptr dead_on_unwind nonnull writable sret(%class.QDomElement) align 8 %2, ptr noundef nonnull align 8 dereferenceable(8) %9, ptr noundef nonnull align 8 dereferenceable(8) %3)
          to label %11 unwind label %31

11:                                               ; preds = %1
  %12 = load ptr, ptr %3, align 8
  %13 = load atomic i32, ptr %12 monotonic, align 4
  switch i32 %13, label %_ZN9QtPrivate8RefCount5derefEv.exit.i [
    i32 0, label %_ZN9QtPrivate8RefCount5derefEv.exit.thread2.i
    i32 -1, label %_ZN7QStringD2Ev.exit
  ]

_ZN9QtPrivate8RefCount5derefEv.exit.i:            ; preds = %11
  %14 = atomicrmw sub ptr %12, i32 1 seq_cst, align 4
  %.not.i = icmp eq i32 %14, 1
  br i1 %.not.i, label %_ZN9QtPrivate8RefCount5derefEv.exit._ZN9QtPrivate8RefCount5derefEv.exit.thread2_crit_edge.i, label %_ZN7QStringD2Ev.exit

_ZN9QtPrivate8RefCount5derefEv.exit._ZN9QtPrivate8RefCount5derefEv.exit.thread2_crit_edge.i: ; preds = %_ZN9QtPrivate8RefCount5derefEv.exit.i
  %.pre.i = load ptr, ptr %3, align 8
  br label %_ZN9QtPrivate8RefCount5derefEv.exit.thread2.i

_ZN9QtPrivate8RefCount5derefEv.exit.thread2.i:    ; preds = %_ZN9QtPrivate8RefCount5derefEv.exit._ZN9QtPrivate8RefCount5derefEv.exit.thread2_crit_edge.i, %11
  %15 = phi ptr [ %.pre.i, %_ZN9QtPrivate8RefCount5derefEv.exit._ZN9QtPrivate8RefCount5derefEv.exit.thread2_crit_edge.i ], [ %12, %11 ]
  call void @_ZN10QArrayData10deallocateEPS_mm(ptr noundef %15, i64 noundef 2, i64 noundef 8) #14
  br label %_ZN7QStringD2Ev.exit

_ZN7QStringD2Ev.exit:                             ; preds = %11, %_ZN9QtPrivate8RefCount5derefEv.exit.i, %_ZN9QtPrivate8RefCount5derefEv.exit.thread2.i
  %16 = load ptr, ptr %8, align 8
  %17 = invoke noundef ptr @_ZN7QString16fromAscii_helperEPKci(ptr noundef nonnull @.str.1, i32 noundef 5)
          to label %18 unwind label %33

18:                                               ; preds = %_ZN7QStringD2Ev.exit
  store ptr %17, ptr %5, align 8
  invoke void @_ZN12QDomDocument13createElementERK7QString(ptr dead_on_unwind nonnull writable sret(%class.QDomElement) align 8 %4, ptr noundef nonnull align 8 dereferenceable(8) %16, ptr noundef nonnull align 8 dereferenceable(8) %5)
          to label %19 unwind label %35

19:                                               ; preds = %18
  %20 = load ptr, ptr %5, align 8
  %21 = load atomic i32, ptr %20 monotonic, align 4
  switch i32 %21, label %_ZN9QtPrivate8RefCount5derefEv.exit.i7 [
    i32 0, label %_ZN9QtPrivate8RefCount5derefEv.exit.thread2.i6
    i32 -1, label %_ZN7QStringD2Ev.exit11
  ]

_ZN9QtPrivate8RefCount5derefEv.exit.i7:           ; preds = %19
  %22 = atomicrmw sub ptr %20, i32 1 seq_cst, align 4
  %.not.i8 = icmp eq i32 %22, 1
  br i1 %.not.i8, label %_ZN9QtPrivate8RefCount5derefEv.exit._ZN9QtPrivate8RefCount5derefEv.exit.thread2_crit_edge.i9, label %_ZN7QStringD2Ev.exit11

_ZN9QtPrivate8RefCount5derefEv.exit._ZN9QtPrivate8RefCount5derefEv.exit.thread2_crit_edge.i9: ; preds = %_ZN9QtPrivate8RefCount5derefEv.exit.i7
  %.pre.i10 = load ptr, ptr %5, align 8
  br label %_ZN9QtPrivate8RefCount5derefEv.exit.thread2.i6

_ZN9QtPrivate8RefCount5derefEv.exit.thread2.i6:   ; preds = %_ZN9QtPrivate8RefCount5derefEv.exit._ZN9QtPrivate8RefCount5derefEv.exit.thread2_crit_edge.i9, %19
  %23 = phi ptr [ %.pre.i10, %_ZN9QtPrivate8RefCount5derefEv.exit._ZN9QtPrivate8RefCount5derefEv.exit.thread2_crit_edge.i9 ], [ %20, %19 ]
  call void @_ZN10QArrayData10deallocateEPS_mm(ptr noundef %23, i64 noundef 2, i64 noundef 8) #14
  br label %_ZN7QStringD2Ev.exit11

_ZN7QStringD2Ev.exit11:                           ; preds = %19, %_ZN9QtPrivate8RefCount5derefEv.exit.i7, %_ZN9QtPrivate8RefCount5derefEv.exit.thread2.i6
  invoke void @_ZN8QDomNode11appendChildERKS_(ptr dead_on_unwind nonnull writable sret(%class.QDomNode) align 8 %6, ptr noundef nonnull align 8 dereferenceable(8) %2, ptr noundef nonnull align 8 dereferenceable(8) %4)
          to label %24 unwind label %.loopexit.split-lp.loopexit.split-lp.loopexit.split-lp

24:                                               ; preds = %_ZN7QStringD2Ev.exit11
  call void @_ZN8QDomNodeD1Ev(ptr noundef nonnull align 8 dereferenceable(8) %6) #14
  invoke void @_ZN14VrmlTranslator6Parser11InitX3dNodeEv(ptr noundef nonnull align 8 dereferenceable(208) %0)
          to label %25 unwind label %.loopexit.split-lp.loopexit.split-lp.loopexit.split-lp

25:                                               ; preds = %24
  %26 = getelementptr inbounds nuw i8, ptr %0, i64 48
  %27 = load ptr, ptr %26, align 8
  %28 = load i32, ptr %27, align 8
  %29 = icmp eq i32 %28, 7
  br i1 %29, label %30, label %37

30:                                               ; preds = %25
  invoke void @_ZN14VrmlTranslator6Parser15HeaderStatementEv(ptr noundef nonnull align 8 dereferenceable(208) %0)
          to label %._crit_edge unwind label %.loopexit.split-lp.loopexit.split-lp.loopexit.split-lp

._crit_edge:                                      ; preds = %30
  %.pre = load ptr, ptr %26, align 8
  %.pre21 = load i32, ptr %.pre, align 8
  br label %37

31:                                               ; preds = %1
  %32 = landingpad { ptr, i32 }
          cleanup
  call void @_ZN7QStringD2Ev(ptr noundef nonnull align 8 dereferenceable(8) %3) #14
  br label %66

33:                                               ; preds = %_ZN7QStringD2Ev.exit
  %34 = landingpad { ptr, i32 }
          cleanup
  br label %65

35:                                               ; preds = %18
  %36 = landingpad { ptr, i32 }
          cleanup
  call void @_ZN7QStringD2Ev(ptr noundef nonnull align 8 dereferenceable(8) %5) #14
  br label %65

.loopexit:                                        ; preds = %.lr.ph.i14
  %lpad.loopexit = landingpad { ptr, i32 }
          cleanup
  br label %.loopexit.split-lp

.loopexit.split-lp.loopexit:                      ; preds = %.lr.ph.i12
  %lpad.loopexit16 = landingpad { ptr, i32 }
          cleanup
  br label %.loopexit.split-lp

.loopexit.split-lp.loopexit.split-lp.loopexit:    ; preds = %.lr.ph.i
  %lpad.loopexit19 = landingpad { ptr, i32 }
          cleanup
  br label %.loopexit.split-lp

.loopexit.split-lp.loopexit.split-lp.loopexit.split-lp: ; preds = %_ZN7QStringD2Ev.exit11, %24, %30, %40, %_ZN14VrmlTranslator6Parser10StatementsER11QDomElement.exit
  %lpad.loopexit.split-lp = landingpad { ptr, i32 }
          cleanup
  br label %.loopexit.split-lp

.loopexit.split-lp:                               ; preds = %.loopexit.split-lp.loopexit, %.loopexit.split-lp.loopexit.split-lp.loopexit.split-lp, %.loopexit.split-lp.loopexit.split-lp.loopexit, %.loopexit
  %lpad.phi = phi { ptr, i32 } [ %lpad.loopexit, %.loopexit ], [ %lpad.loopexit16, %.loopexit.split-lp.loopexit ], [ %lpad.loopexit19, %.loopexit.split-lp.loopexit.split-lp.loopexit ], [ %lpad.loopexit.split-lp, %.loopexit.split-lp.loopexit.split-lp.loopexit.split-lp ]
  call void @_ZN8QDomNodeD2Ev(ptr noundef nonnull align 8 dereferenceable(8) %4) #14
  br label %65

37:                                               ; preds = %._crit_edge, %25
  %38 = phi i32 [ %.pre21, %._crit_edge ], [ %28, %25 ]
  %39 = icmp eq i32 %38, 11
  br i1 %39, label %40, label %41

40:                                               ; preds = %37
  invoke void @_ZN14VrmlTranslator6Parser16ProfileStatementEv(ptr noundef nonnull align 8 dereferenceable(208) %0)
          to label %._crit_edge22 unwind label %.loopexit.split-lp.loopexit.split-lp.loopexit.split-lp

._crit_edge22:                                    ; preds = %40
  %.pre23 = load ptr, ptr %26, align 8
  %.pre24 = load i32, ptr %.pre23, align 8
  br label %41

41:                                               ; preds = %._crit_edge22, %37
  %42 = phi i32 [ %.pre24, %._crit_edge22 ], [ %38, %37 ]
  %43 = icmp eq i32 %42, 12
  br i1 %43, label %.lr.ph.i, label %_ZN14VrmlTranslator6Parser19ComponentStatementsEv.exit

.lr.ph.i:                                         ; preds = %41, %.noexc
  invoke void @_ZN14VrmlTranslator6Parser18ComponentStatementEv(ptr noundef nonnull align 8 dereferenceable(208) %0)
          to label %.noexc unwind label %.loopexit.split-lp.loopexit.split-lp.loopexit

.noexc:                                           ; preds = %.lr.ph.i
  %44 = load ptr, ptr %26, align 8
  %45 = load i32, ptr %44, align 8
  %46 = icmp eq i32 %45, 12
  br i1 %46, label %.lr.ph.i, label %_ZN14VrmlTranslator6Parser19ComponentStatementsEv.exit, !llvm.loop !9

_ZN14VrmlTranslator6Parser19ComponentStatementsEv.exit: ; preds = %.noexc, %41
  %47 = phi i32 [ %42, %41 ], [ %45, %.noexc ]
  %48 = icmp eq i32 %47, 18
  br i1 %48, label %.lr.ph.i12, label %_ZN14VrmlTranslator6Parser14MetaStatementsEv.exit

.lr.ph.i12:                                       ; preds = %_ZN14VrmlTranslator6Parser19ComponentStatementsEv.exit, %.noexc13
  invoke void @_ZN14VrmlTranslator6Parser13MetaStatementEv(ptr noundef nonnull align 8 dereferenceable(208) %0)
          to label %.noexc13 unwind label %.loopexit.split-lp.loopexit

.noexc13:                                         ; preds = %.lr.ph.i12
  %49 = load ptr, ptr %26, align 8
  %50 = load i32, ptr %49, align 8
  %51 = icmp eq i32 %50, 18
  br i1 %51, label %.lr.ph.i12, label %_ZN14VrmlTranslator6Parser14MetaStatementsEv.exit, !llvm.loop !10

_ZN14VrmlTranslator6Parser14MetaStatementsEv.exit: ; preds = %.noexc13, %_ZN14VrmlTranslator6Parser19ComponentStatementsEv.exit
  %52 = phi i32 [ %47, %_ZN14VrmlTranslator6Parser19ComponentStatementsEv.exit ], [ %50, %.noexc13 ]
  %53 = sext i32 %52 to i64
  %54 = getelementptr inbounds [12 x [87 x i8]], ptr @_ZZN14VrmlTranslator6Parser7StartOfEiE3set, i64 0, i64 1, i64 %53
  %55 = load i8, ptr %54, align 1
  %56 = trunc i8 %55 to i1
  br i1 %56, label %.lr.ph.i14, label %_ZN14VrmlTranslator6Parser10StatementsER11QDomElement.exit

.lr.ph.i14:                                       ; preds = %_ZN14VrmlTranslator6Parser14MetaStatementsEv.exit, %.noexc15
  invoke void @_ZN14VrmlTranslator6Parser9StatementER11QDomElement(ptr noundef nonnull align 8 dereferenceable(208) %0, ptr noundef nonnull align 8 dereferenceable(8) %4)
          to label %.noexc15 unwind label %.loopexit

.noexc15:                                         ; preds = %.lr.ph.i14
  %57 = load ptr, ptr %26, align 8
  %58 = load i32, ptr %57, align 8
  %59 = sext i32 %58 to i64
  %60 = getelementptr inbounds [12 x [87 x i8]], ptr @_ZZN14VrmlTranslator6Parser7StartOfEiE3set, i64 0, i64 1, i64 %59
  %61 = load i8, ptr %60, align 1
  %62 = trunc i8 %61 to i1
  br i1 %62, label %.lr.ph.i14, label %_ZN14VrmlTranslator6Parser10StatementsER11QDomElement.exit, !llvm.loop !11

_ZN14VrmlTranslator6Parser10StatementsER11QDomElement.exit: ; preds = %.noexc15, %_ZN14VrmlTranslator6Parser14MetaStatementsEv.exit
  %63 = load ptr, ptr %8, align 8
  invoke void @_ZN8QDomNode11appendChildERKS_(ptr dead_on_unwind nonnull writable sret(%class.QDomNode) align 8 %7, ptr noundef nonnull align 8 dereferenceable(8) %63, ptr noundef nonnull align 8 dereferenceable(8) %2)
          to label %64 unwind label %.loopexit.split-lp.loopexit.split-lp.loopexit.split-lp

64:                                               ; preds = %_ZN14VrmlTranslator6Parser10StatementsER11QDomElement.exit
  call void @_ZN8QDomNodeD1Ev(ptr noundef nonnull align 8 dereferenceable(8) %7) #14
  call void @_ZN8QDomNodeD2Ev(ptr noundef nonnull align 8 dereferenceable(8) %4) #14
  call void @_ZN8QDomNodeD2Ev(ptr noundef nonnull align 8 dereferenceable(8) %2) #14
  ret void

65:                                               ; preds = %.loopexit.split-lp, %35, %33
  %.pn = phi { ptr, i32 } [ %lpad.phi, %.loopexit.split-lp ], [ %36, %35 ], [ %34, %33 ]
  call void @_ZN8QDomNodeD2Ev(ptr noundef nonnull align 8 dereferenceable(8) %2) #14
  br label %66

66:                                               ; preds = %65, %31
  %.pn.pn = phi { ptr, i32 } [ %.pn, %65 ], [ %32, %31 ]
  resume { ptr, i32 } %.pn.pn
}